; Function Attrs: nounwind sspstrong uwtable
define internal i64 @cState_generate(i32 noundef %0, ptr noundef readonly captures(none) %1, i64 noundef %2) #0 {
  %4 = add i32 %0, -3
  %or.cond.i = icmp ult i32 %4, -2
  br i1 %or.cond.i, label %5, label %rb_check_arity.exit

5:                                                ; preds = %3
  tail call void @rb_error_arity(i32 noundef %0, i32 noundef 1, i32 noundef 2) #26
  unreachable

rb_check_arity.exit:                              ; preds = %3
  %6 = load i64, ptr %1, align 8, !tbaa !6
  %7 = icmp samesign ugt i32 %0, 1
  br i1 %7, label %8, label %11

8:                                                ; preds = %rb_check_arity.exit
  %9 = getelementptr inbounds nuw i8, ptr %1, i64 8
  %10 = load i64, ptr %9, align 8, !tbaa !6
  br label %11

11:                                               ; preds = %rb_check_arity.exit, %8
  %12 = phi i64 [ %10, %8 ], [ 4, %rb_check_arity.exit ]
  %13 = tail call fastcc i64 @cState_partial_generate(i64 noundef %2, i64 noundef %6, ptr noundef nonnull @generate_json, i64 noundef %12)
  %14 = tail call ptr @rb_check_typeddata(i64 noundef %2, ptr noundef nonnull @JSON_Generator_State_type) #22
  ret i64 %13
}